Certificate:
    Data:
        Version: 3 (0x2)
        Serial Number: 0 (0x0)
    Signature Algorithm: sha256WithRSAEncryption
        Issuer: C=HK, ST=Hong Kong, L=Hong Kong Science Park, O=ASTRI, OU=ICDD, CN=Blockchain.HKEX.com
        Validity
            Not Before: Sep  1 04:21:33 2016 GMT
            Not After : Aug 30 04:21:33 2026 GMT
        Subject: C=HK, ST=Hong Kong, O=ASTRI, OU=ICDD, CN=bitcoind.18334
        Subject Public Key Info:
            Public Key Algorithm: rsaEncryption
                Public-Key: (1024 bit)
                Modulus:
                    00:d0:44:87:0d:81:94:84:5c:aa:57:fc:21:4a:e0:
                    67:e1:d6:13:fe:0f:f1:b9:1d:96:e0:60:56:54:34:
                    69:47:44:59:b9:97:32:24:32:0d:d9:91:0e:42:23:
                    88:3c:66:09:91:6b:f0:8b:1f:55:a6:1e:07:f6:f9:
                    2b:e0:18:d8:bb:9a:f5:62:d3:33:dd:7b:17:c9:61:
                    9e:40:48:f5:f0:3a:2c:9d:68:de:51:57:aa:df:f8:
                    ea:2f:e9:69:40:70:d0:b0:9d:a1:5d:eb:ed:73:1c:
                    0b:0f:17:da:2b:b0:f0:4a:66:d7:9e:33:fe:8c:f0:
                    56:e4:f5:2c:4a:bd:fb:30:b5
                Exponent: 65537 (0x10001)
        X509v3 extensions:
            X509v3 Basic Constraints: 
                CA:FALSE
            Netscape Comment: 
                OpenSSL Generated Certificate
            X509v3 Subject Key Identifier: 
                0C:3B:B1:85:8F:98:96:7C:88:75:99:E2:B7:DE:4C:04:BA:16:E4:9D
            X509v3 Authority Key Identifier: 
                keyid:71:C9:F7:9A:83:F7:08:DD:76:40:0D:ED:C4:C4:FB:27:7B:59:55:DA

    Signature Algorithm: sha256WithRSAEncryption
         82:f5:34:75:c5:a1:1a:2b:03:c3:ca:3c:6a:9b:72:4c:ff:52:
         f0:10:16:6c:fd:d9:ef:b4:06:1e:ee:2f:df:46:fa:cc:95:49:
         b1:48:70:ee:9a:3e:12:37:8a:9e:38:12:ad:3b:05:c4:76:ed:
         88:4d:51:99:59:99:9c:cf:db:aa:cd:ff:7c:65:cd:15:ae:51:
         93:9a:53:98:d7:60:3c:22:04:0e:76:a9:ef:f9:3c:51:e0:29:
         ae:1d:e1:dc:8c:4c:58:dc:93:9f:d1:29:bb:01:bd:5b:69:ff:
         93:9d:01:8c:fc:c4:2e:2b:f0:ee:cd:14:1b:b3:54:23:97:40:
         61:d9:ef:07:37:93:9d:ca:15:fc:87:f4:6d:f2:8f:71:7b:f9:
         71:38:37:29:9c:1b:f6:c5:da:33:9f:03:86:97:56:4d:e4:d7:
         a7:18:57:09:0b:e2:e2:cd:08:16:48:d8:59:91:9b:12:8f:15:
         5d:6e:c5:c7:3e:45:5e:50:7a:8b:52:0a:01:6f:43:28:a4:ef:
         2f:3f:31:7d:19:c4:af:c7:e8:e1:bf:8b:87:01:a8:ed:11:f4:
         22:f3:12:2d:33:0e:99:ee:06:d5:bb:cb:5c:a2:e6:bd:17:66:
         7a:a0:e5:43:71:79:37:f5:d4:ab:c2:a3:55:f7:f8:de:6d:92:
         ba:71:3f:47
-----BEGIN CERTIFICATE-----
MIIDSjCCAjKgAwIBAgIBADANBgkqhkiG9w0BAQsFADB/MQswCQYDVQQGEwJISzES
MBAGA1UECBMJSG9uZyBLb25nMR8wHQYDVQQHExZIb25nIEtvbmcgU2NpZW5jZSBQ
YXJrMQ4wDAYDVQQKEwVBU1RSSTENMAsGA1UECxMESUNERDEcMBoGA1UEAxMTQmxv
Y2tjaGFpbi5IS0VYLmNvbTAeFw0xNjA5MDEwNDIxMzNaFw0yNjA4MzAwNDIxMzNa
MFkxCzAJBgNVBAYTAkhLMRIwEAYDVQQIEwlIb25nIEtvbmcxDjAMBgNVBAoTBUFT
VFJJMQ0wCwYDVQQLEwRJQ0REMRcwFQYDVQQDEw5iaXRjb2luZC4xODMzNDCBnzAN
BgkqhkiG9w0BAQEFAAOBjQAwgYkCgYEA0ESHDYGUhFyqV/whSuBn4dYT/g/xuR2W
4GBWVDRpR0RZuZcyJDIN2ZEOQiOIPGYJkWvwix9Vph4H9vkr4BjYu5r1YtMz3XsX
yWGeQEj18DosnWjeUVeq3/jqL+lpQHDQsJ2hXevtcxwLDxfaK7DwSmbXnjP+jPBW
5PUsSr37MLUCAwEAAaN7MHkwCQYDVR0TBAIwADAsBglghkgBhvhCAQ0EHxYdT3Bl
blNTTCBHZW5lcmF0ZWQgQ2VydGlmaWNhdGUwHQYDVR0OBBYEFAw7sYWPmJZ8iHWZ
4rfeTAS6FuSdMB8GA1UdIwQYMBaAFHHJ95qD9wjddkAN7cTE+yd7WVXaMA0GCSqG
SIb3DQEBCwUAA4IBAQCC9TR1xaEaKwPDyjxqm3JM/1LwEBZs/dnvtAYe7i/fRvrM
lUmxSHDumj4SN4qeOBKtOwXEdu2ITVGZWZmcz9uqzf98Zc0VrlGTmlOY12A8IgQO
dqnv+TxR4CmuHeHcjExY3JOf0Sm7Ab1baf+TnQGM/MQuK/DuzRQbs1Qjl0Bh2e8H
N5OdyhX8h/Rt8o9xe/lxODcpnBv2xdoznwOGl1ZN5NenGFcJC+LizQgWSNhZkZsS
jxVdbsXHPkVeUHqLUgoBb0MopO8vPzF9GcSvx+jhv4uHAajtEfQi8xItMw6Z7gbV
u8tcoua9F2Z6oOVDcXk39dSrwqNV9/jebZK6cT9H
-----END CERTIFICATE-----
